; Function Attrs: nounwind sspstrong uwtable
define dso_local void @block_job_user_resume(ptr noundef captures(none) %0) #0 {
  %2 = tail call zeroext i1 @qemu_in_main_thread() #8
  br i1 %2, label %4, label %3

3:                                                ; preds = %1
  tail call void @__assert_fail(ptr noundef nonnull @.str, ptr noundef nonnull @.str.1, i32 noundef 574, ptr noundef nonnull @__PRETTY_FUNCTION__.block_job_user_resume) #9
  unreachable

4:                                                ; preds = %1
  %5 = load atomic i64, ptr @qemu_mutex_lock_func monotonic, align 8
  %6 = inttoptr i64 %5 to ptr
  tail call void %6(ptr noundef nonnull @job_mutex, ptr noundef nonnull @.str.13, i32 noundef 56) #8
  %7 = tail call zeroext i1 @qemu_in_main_thread() #8
  br i1 %7, label %9, label %8

8:                                                ; preds = %4
  tail call void @__assert_fail(ptr noundef nonnull @.str, ptr noundef nonnull @.str.1, i32 noundef 557, ptr noundef nonnull @__PRETTY_FUNCTION__.block_job_iostatus_reset_locked) #9
  unreachable

9:                                                ; preds = %4
  %10 = getelementptr inbounds nuw i8, ptr %0, i64 280
  %11 = load i32, ptr %10, align 8
  %12 = icmp eq i32 %11, 0
  br i1 %12, label %block_job_iostatus_reset.exit, label %13

13:                                               ; preds = %9
  %14 = getelementptr inbounds nuw i8, ptr %0, i64 182
  %15 = load i8, ptr %14, align 2, !range !10, !noundef !11
  %16 = trunc nuw i8 %15 to i1
  br i1 %16, label %17, label %21

17:                                               ; preds = %13
  %18 = getelementptr inbounds nuw i8, ptr %0, i64 176
  %19 = load i32, ptr %18, align 8
  %20 = icmp sgt i32 %19, 0
  br i1 %20, label %22, label %21

21:                                               ; preds = %17, %13
  tail call void @__assert_fail(ptr noundef nonnull @.str.12, ptr noundef nonnull @.str.1, i32 noundef 561, ptr noundef nonnull @__PRETTY_FUNCTION__.block_job_iostatus_reset_locked) #9
  unreachable

22:                                               ; preds = %17
  store i32 0, ptr %10, align 8
  br label %block_job_iostatus_reset.exit

block_job_iostatus_reset.exit:                    ; preds = %9, %22
  tail call void @qemu_mutex_unlock_impl(ptr noundef nonnull @job_mutex, ptr noundef nonnull @.str.13, i32 noundef 56) #8
  ret void
}